target datalayout = "e-m:e-p270:32:32-p271:32:32-p272:64:64-i64:64-i128:128-f80:128-n8:16:32:64-S128"
target triple = "x86_64-pc-linux-gnu"

%struct.SN_env = type { ptr, i32, i32, i32, i32, i32, ptr, ptr }

; Function Attrs: nounwind uwtable
define internal i32 @r_undouble(ptr noundef %0) #0 {
  %2 = alloca i32, align 4
  %3 = alloca ptr, align 8
  %4 = alloca i32, align 4
  %5 = alloca i32, align 4
  %6 = alloca i32, align 4
  store ptr %0, ptr %3, align 8
  call void @llvm.lifetime.start.p0(i64 4, ptr %4) #3
  %7 = load ptr, ptr %3, align 8
  %8 = getelementptr inbounds nuw %struct.SN_env, ptr %7, i32 0, i32 2
  %9 = load i32, ptr %8, align 4
  %10 = load ptr, ptr %3, align 8
  %11 = getelementptr inbounds nuw %struct.SN_env, ptr %10, i32 0, i32 1
  %12 = load i32, ptr %11, align 8
  %13 = sub i32 %9, %12
  store i32 %13, ptr %4, align 4
  %14 = load ptr, ptr %3, align 8
  %15 = getelementptr inbounds nuw %struct.SN_env, ptr %14, i32 0, i32 1
  %16 = load i32, ptr %15, align 8
  %17 = sub i32 %16, 1
  %18 = load ptr, ptr %3, align 8
  %19 = getelementptr inbounds nuw %struct.SN_env, ptr %18, i32 0, i32 3
  %20 = load i32, ptr %19, align 8
  %21 = icmp sle i32 %17, %20
  br i1 %21, label %52, label %22

22:                                               ; preds = %1
  %23 = load ptr, ptr %3, align 8
  %24 = getelementptr inbounds nuw %struct.SN_env, ptr %23, i32 0, i32 0
  %25 = load ptr, ptr %24, align 8
  %26 = load ptr, ptr %3, align 8
  %27 = getelementptr inbounds nuw %struct.SN_env, ptr %26, i32 0, i32 1
  %28 = load i32, ptr %27, align 8
  %29 = sub i32 %28, 1
  %30 = sext i32 %29 to i64
  %31 = getelementptr inbounds i8, ptr %25, i64 %30
  %32 = load i8, ptr %31, align 1
  %33 = zext i8 %32 to i32
  %34 = ashr i32 %33, 5
  %35 = icmp ne i32 %34, 3
  br i1 %35, label %52, label %36

36:                                               ; preds = %22
  %37 = load ptr, ptr %3, align 8
  %38 = getelementptr inbounds nuw %struct.SN_env, ptr %37, i32 0, i32 0
  %39 = load ptr, ptr %38, align 8
  %40 = load ptr, ptr %3, align 8
  %41 = getelementptr inbounds nuw %struct.SN_env, ptr %40, i32 0, i32 1
  %42 = load i32, ptr %41, align 8
  %43 = sub i32 %42, 1
  %44 = sext i32 %43 to i64
  %45 = getelementptr inbounds i8, ptr %39, i64 %44
  %46 = load i8, ptr %45, align 1
  %47 = zext i8 %46 to i32
  %48 = and i32 %47, 31
  %49 = ashr i32 1050640, %48
  %50 = and i32 %49, 1
  %51 = icmp ne i32 %50, 0
  br i1 %51, label %53, label %52

52:                                               ; preds = %36, %22, %1
  store i32 0, ptr %2, align 4
  store i32 1, ptr %5, align 4
  br label %66

53:                                               ; preds = %36
  %54 = load ptr, ptr %3, align 8
  %55 = call i32 @find_among_b(ptr noundef %54, ptr noundef @a_2, i32 noundef 3)
  %56 = icmp ne i32 %55, 0
  br i1 %56, label %58, label %57

57:                                               ; preds = %53
  store i32 0, ptr %2, align 4
  store i32 1, ptr %5, align 4
  br label %66

58:                                               ; preds = %53
  %59 = load ptr, ptr %3, align 8
  %60 = getelementptr inbounds nuw %struct.SN_env, ptr %59, i32 0, i32 2
  %61 = load i32, ptr %60, align 4
  %62 = load i32, ptr %4, align 4
  %63 = sub i32 %61, %62
  %64 = load ptr, ptr %3, align 8
  %65 = getelementptr inbounds nuw %struct.SN_env, ptr %64, i32 0, i32 1
  store i32 %63, ptr %65, align 8
  store i32 0, ptr %5, align 4
  br label %66

66:                                               ; preds = %58, %57, %52
  call void @llvm.lifetime.end.p0(i64 4, ptr %4) #3
  %67 = load i32, ptr %5, align 4
  switch i32 %67, label %104 [
    i32 0, label %68
    i32 1, label %102
  ]

68:                                               ; preds = %66
  %69 = load ptr, ptr %3, align 8
  %70 = getelementptr inbounds nuw %struct.SN_env, ptr %69, i32 0, i32 1
  %71 = load i32, ptr %70, align 8
  %72 = load ptr, ptr %3, align 8
  %73 = getelementptr inbounds nuw %struct.SN_env, ptr %72, i32 0, i32 5
  store i32 %71, ptr %73, align 8
  %74 = load ptr, ptr %3, align 8
  %75 = getelementptr inbounds nuw %struct.SN_env, ptr %74, i32 0, i32 1
  %76 = load i32, ptr %75, align 8
  %77 = load ptr, ptr %3, align 8
  %78 = getelementptr inbounds nuw %struct.SN_env, ptr %77, i32 0, i32 3
  %79 = load i32, ptr %78, align 8
  %80 = icmp sle i32 %76, %79
  br i1 %80, label %81, label %82

81:                                               ; preds = %68
  store i32 0, ptr %2, align 4
  br label %102

82:                                               ; preds = %68
  %83 = load ptr, ptr %3, align 8
  %84 = getelementptr inbounds nuw %struct.SN_env, ptr %83, i32 0, i32 1
  %85 = load i32, ptr %84, align 8
  %86 = add i32 %85, -1
  store i32 %86, ptr %84, align 8
  %87 = load ptr, ptr %3, align 8
  %88 = getelementptr inbounds nuw %struct.SN_env, ptr %87, i32 0, i32 1
  %89 = load i32, ptr %88, align 8
  %90 = load ptr, ptr %3, align 8
  %91 = getelementptr inbounds nuw %struct.SN_env, ptr %90, i32 0, i32 4
  store i32 %89, ptr %91, align 4
  call void @llvm.lifetime.start.p0(i64 4, ptr %6) #3
  %92 = load ptr, ptr %3, align 8
  %93 = call i32 @slice_del(ptr noundef %92)
  store i32 %93, ptr %6, align 4
  %94 = load i32, ptr %6, align 4
  %95 = icmp slt i32 %94, 0
  br i1 %95, label %96, label %98

96:                                               ; preds = %82
  %97 = load i32, ptr %6, align 4
  store i32 %97, ptr %2, align 4
  store i32 1, ptr %5, align 4
  br label %99

98:                                               ; preds = %82
  store i32 0, ptr %5, align 4
  br label %99

99:                                               ; preds = %98, %96
  call void @llvm.lifetime.end.p0(i64 4, ptr %6) #3
  %100 = load i32, ptr %5, align 4
  switch i32 %100, label %104 [
    i32 0, label %101
    i32 1, label %102
  ]

101:                                              ; preds = %99
  store i32 1, ptr %2, align 4
  br label %102

102:                                              ; preds = %101, %99, %81, %66
  %103 = load i32, ptr %2, align 4
  ret i32 %103

104:                                              ; preds = %99, %66
  unreachable
}