; Function Attrs: nounwind uwtable
define internal fastcc range(i32 -2147483648, 2) i32 @r_undouble(ptr noundef %0) unnamed_addr #0 {
  %2 = getelementptr inbounds nuw i8, ptr %0, i64 12
  %3 = load i32, ptr %2, align 4
  %4 = getelementptr inbounds nuw i8, ptr %0, i64 8
  %5 = load i32, ptr %4, align 8
  %.neg = sub i32 %5, %3
  %6 = add i32 %5, -1
  %7 = getelementptr inbounds nuw i8, ptr %0, i64 16
  %8 = load i32, ptr %7, align 8
  %.not = icmp sgt i32 %6, %8
  br i1 %.not, label %9, label %.thread

9:                                                ; preds = %1
  %10 = load ptr, ptr %0, align 8
  %11 = sext i32 %6 to i64
  %12 = getelementptr inbounds i8, ptr %10, i64 %11
  %13 = load i8, ptr %12, align 1
  %14 = zext i8 %13 to i32
  %.mask = and i32 %14, 224
  %.not28 = icmp eq i32 %.mask, 96
  br i1 %.not28, label %15, label %.thread

15:                                               ; preds = %9
  %16 = and i32 %14, 31
  %17 = shl nuw i32 1, %16
  %18 = and i32 %17, 1050640
  %.not29 = icmp eq i32 %18, 0
  br i1 %.not29, label %.thread, label %19

19:                                               ; preds = %15
  %20 = tail call i32 @find_among_b(ptr noundef nonnull %0, ptr noundef nonnull @a_2, i32 noundef 3) #3
  %.not30 = icmp eq i32 %20, 0
  br i1 %.not30, label %.thread, label %21

21:                                               ; preds = %19
  %22 = load i32, ptr %2, align 4
  %23 = add i32 %22, %.neg
  store i32 %23, ptr %4, align 8
  %24 = getelementptr inbounds nuw i8, ptr %0, i64 24
  store i32 %23, ptr %24, align 8
  %25 = load i32, ptr %7, align 8
  %.not31 = icmp sgt i32 %23, %25
  br i1 %.not31, label %26, label %.thread

26:                                               ; preds = %21
  %27 = add nsw i32 %23, -1
  store i32 %27, ptr %4, align 8
  %28 = getelementptr inbounds nuw i8, ptr %0, i64 20
  store i32 %27, ptr %28, align 4
  %29 = tail call i32 @slice_del(ptr noundef nonnull %0) #3
  %30 = icmp sgt i32 %29, -1
  %. = tail call i32 @llvm.smin.i32(i32 %29, i32 0)
  %spec.select = select i1 %30, i32 1, i32 %.
  br label %.thread

.thread:                                          ; preds = %19, %1, %9, %15, %26, %21
  %.1 = phi i32 [ 0, %21 ], [ %spec.select, %26 ], [ 0, %15 ], [ 0, %9 ], [ 0, %1 ], [ 0, %19 ]
  ret i32 %.1
}